(dp0
VAuEngine
p1
S'http://auengine.com/embed.php?file=GM5GQSJo&w=640&h=400'
p2
sVvideo4
p3
S'http://www.video44.net/gogo/?w=640&h=400&file=kurokami-07.flv&sv=1'
p4
sVRealityLapse
p5
S'http://www.nwanime.com/realitylapse.php?id=http://api.realitylapse.com/code/309199/12kingdoms/31/player.js'
p6
sVZunux
p7
S'http://www.zunux.com/view/z5zaaeSUQ5/embed.html'
p8
sVTrollvid
p9
S'http://trollvid.net/embed.php?file=6e095092&w=640&h=400'
p10
sVYourupload
p11
S'http://yourupload.com/embed/a3003542147d215c361f252ef1ba4967&width=640&height=400'
p12
sVNowVideo
p13
S'http://embed.nowvideo.sx/embed.php?v=534e323864b5e&width=640&height=400'
p14
sVVideoNest
p15
S'http://videonest.net/embed-4hs3ibwr9zfr-650x370.html'
p16
sVNovaMov
p17
S'http://embed.novamov.com/embed.php?v=9s6rdc98ip2vo&width=640&height=400&px=1'
p18
sVUpload2
p19
S'http://upload2.com/embed/672acaa0'
p20
sVSteel
p21
S'http://clip.vn/embed/41A'
p22
sVVideoWeed
p23
S'http://embed.videoweed.es/embed.php?v=4f4d576606534&width=640&height=400'
p24
sVVideoFun
p25
S'http://videofun.me/embed/8d512c7e2f5ce20518748b7e3f0091f8?w=640&h=400'
p26
sVmp4Upload
p27
S'http://mp4upload.com/embed-4qoue4jb72hv-650x370.html'
p28
sVLovely
p29
S'http://clip.vn/embed/A2l'
p30
sVVidWoot
p31
S'http://embed.vidwoot.com/A714C0?client_file_id=383335&width=636&height=395'
p32
sVVeevr
p33
S'http://veevr.com/embed/kbn_KpHRn'
p34
s.